target datalayout = "e-m:e-p270:32:32-p271:32:32-p272:64:64-i64:64-i128:128-f80:128-n8:16:32:64-S128"
target triple = "x86_64-pc-linux-gnu"

%"class.rocksdb::RandomTransactionInserter" = type { ptr, %"struct.rocksdb::WriteOptions", %"struct.rocksdb::ReadOptions", i64, i16, i64, i64, i64, %"class.rocksdb::Status", ptr, ptr, i64, i64 }
%"struct.rocksdb::WriteOptions" = type <{ i8, i8, i8, i8, i8, i8, [2 x i8], i32, [4 x i8], i64, i8, [7 x i8] }>
%"struct.rocksdb::ReadOptions" = type { ptr, ptr, ptr, %"class.std::chrono::duration", %"class.std::chrono::duration", i32, i32, i64, %"class.std::optional", i8, i8, i8, i8, i8, i64, i64, ptr, ptr, i8, i8, i8, i8, i8, i8, i8, i8, %"class.std::function", i8, i8, i8, i8, i64 }
%"class.std::chrono::duration" = type { i64 }
%"class.std::optional" = type { %"struct.std::_Optional_base" }
%"struct.std::_Optional_base" = type { %"struct.std::_Optional_payload" }
%"struct.std::_Optional_payload" = type { %"struct.std::_Optional_payload_base.base", [7 x i8] }
%"struct.std::_Optional_payload_base.base" = type <{ %"union.std::_Optional_payload_base<unsigned long>::_Storage", i8 }>
%"union.std::_Optional_payload_base<unsigned long>::_Storage" = type { i64 }
%"class.std::function" = type { %"class.std::_Function_base", ptr }
%"class.std::_Function_base" = type { %"union.std::_Any_data", ptr }
%"union.std::_Any_data" = type { %"union.std::_Nocopy_types" }
%"union.std::_Nocopy_types" = type { { i64, i64 } }
%"class.rocksdb::Status" = type { i8, i8, i8, i8, i8, i8, %"class.std::unique_ptr" }
%"class.std::unique_ptr" = type { %"struct.std::__uniq_ptr_data" }
%"struct.std::__uniq_ptr_data" = type { %"class.std::__uniq_ptr_impl" }
%"class.std::__uniq_ptr_impl" = type { %"class.std::tuple" }
%"class.std::tuple" = type { %"struct.std::_Tuple_impl" }
%"struct.std::_Tuple_impl" = type { %"struct.std::_Head_base.1" }
%"struct.std::_Head_base.1" = type { ptr }

; Function Attrs: mustprogress uwtable
define noundef zeroext i1 @_ZN7rocksdb25RandomTransactionInserter29OptimisticTransactionDBInsertEPNS_23OptimisticTransactionDBERKNS_28OptimisticTransactionOptionsE(ptr noundef nonnull align 8 dereferenceable(296) %0, ptr noundef %1, ptr noundef nonnull align 8 dereferenceable(16) %2) #4 align 2 {
  %4 = alloca ptr, align 8
  %5 = alloca ptr, align 8
  %6 = alloca ptr, align 8
  store ptr %0, ptr %4, align 8, !tbaa !17
  store ptr %1, ptr %5, align 8, !tbaa !144
  store ptr %2, ptr %6, align 8, !tbaa !146
  %7 = load ptr, ptr %4, align 8
  %8 = load ptr, ptr %5, align 8, !tbaa !144
  %9 = getelementptr inbounds nuw %"class.rocksdb::RandomTransactionInserter", ptr %7, i32 0, i32 1
  %10 = load ptr, ptr %6, align 8, !tbaa !146
  %11 = getelementptr inbounds nuw %"class.rocksdb::RandomTransactionInserter", ptr %7, i32 0, i32 10
  %12 = load ptr, ptr %11, align 8, !tbaa !64
  %13 = load ptr, ptr %8, align 8, !tbaa !75
  %14 = getelementptr inbounds ptr, ptr %13, i64 154
  %15 = load ptr, ptr %14, align 8
  %16 = call noundef ptr %15(ptr noundef nonnull align 8 dereferenceable(32) %8, ptr noundef nonnull align 8 dereferenceable(25) %9, ptr noundef nonnull align 8 dereferenceable(16) %10, ptr noundef %12)
  %17 = getelementptr inbounds nuw %"class.rocksdb::RandomTransactionInserter", ptr %7, i32 0, i32 10
  store ptr %16, ptr %17, align 8, !tbaa !64
  %18 = load ptr, ptr %5, align 8, !tbaa !144
  %19 = getelementptr inbounds nuw %"class.rocksdb::RandomTransactionInserter", ptr %7, i32 0, i32 10
  %20 = load ptr, ptr %19, align 8, !tbaa !64
  %21 = call noundef zeroext i1 @_ZN7rocksdb25RandomTransactionInserter8DoInsertEPNS_2DBEPNS_11TransactionEb(ptr noundef nonnull align 8 dereferenceable(296) %7, ptr noundef %18, ptr noundef %20, i1 noundef zeroext true)
  ret i1 %21
}