; Function Attrs: mustprogress uwtable
define noundef zeroext i1 @_ZN7rocksdb25RandomTransactionInserter29OptimisticTransactionDBInsertEPNS_23OptimisticTransactionDBERKNS_28OptimisticTransactionOptionsE(ptr noundef nonnull align 8 dereferenceable(296) %0, ptr noundef %1, ptr noundef nonnull align 8 dereferenceable(16) %2) local_unnamed_addr #1 align 2 {
  %4 = getelementptr inbounds nuw i8, ptr %0, i64 8
  %5 = getelementptr inbounds nuw i8, ptr %0, i64 272
  %6 = load ptr, ptr %5, align 8, !tbaa !53
  %7 = load ptr, ptr %1, align 8, !tbaa !51
  %8 = getelementptr inbounds nuw i8, ptr %7, i64 1232
  %9 = load ptr, ptr %8, align 8
  %10 = tail call noundef ptr %9(ptr noundef nonnull align 8 dereferenceable(32) %1, ptr noundef nonnull align 8 dereferenceable(25) %4, ptr noundef nonnull align 8 dereferenceable(16) %2, ptr noundef %6)
  store ptr %10, ptr %5, align 8, !tbaa !53
  %11 = tail call noundef zeroext i1 @_ZN7rocksdb25RandomTransactionInserter8DoInsertEPNS_2DBEPNS_11TransactionEb(ptr noundef nonnull align 8 dereferenceable(296) %0, ptr noundef nonnull %1, ptr noundef %10, i1 noundef zeroext true)
  ret i1 %11
}